{
   <insert_a_suppression_name_here>
   Memcheck:Leak
   match-leak-kinds: reachable
   fun:malloc_zone_calloc
   fun:NXCreateHashTableFromZone
   fun:NXCreateMapTableFromZone
   fun:map_images_nolock
   fun:map_images
   fun:___ZN5dyld412RuntimeState16setObjCNotifiersEPFvjPKPKcPKPK11mach_headerEPFvS2_S7_ESD__block_invoke
   fun:_ZN5dyld412RuntimeState19withLoadersReadLockEU13block_pointerFvvE
   fun:_ZN5dyld412RuntimeState16setObjCNotifiersEPFvjPKPKcPKPK11mach_headerEPFvS2_S7_ESD_
   fun:_ZN5dyld44APIs26_dyld_objc_notify_registerEPFvjPKPKcPKPK11mach_headerEPFvS2_S7_ESD_
   fun:_objc_init
   fun:_os_object_init
   fun:libdispatch_init
   fun:libSystem_initializer
   fun:___ZNK5dyld46Loader25findAndRunAllInitializersERNS_12RuntimeStateE_block_invoke
   fun:___ZNK5dyld313MachOAnalyzer18forEachInitializerER11DiagnosticsRKNS0_15VMAddrConverterEU13block_pointerFvjEPKv_block_invoke.261
   fun:___ZNK5dyld39MachOFile14forEachSectionEU13block_pointerFvRKNS0_11SectionInfoEbRbE_block_invoke
   fun:_ZNK5dyld39MachOFile18forEachLoadCommandER11DiagnosticsU13block_pointerFvPK12load_commandRbE
   fun:_ZNK5dyld39MachOFile14forEachSectionEU13block_pointerFvRKNS0_11SectionInfoEbRbE
   fun:_ZNK5dyld313MachOAnalyzer18forEachInitializerER11DiagnosticsRKNS0_15VMAddrConverterEU13block_pointerFvjEPKv
   fun:_ZNK5dyld46Loader25findAndRunAllInitializersERNS_12RuntimeStateE
   fun:_ZNK5dyld414PrebuiltLoader15runInitializersERNS_12RuntimeStateE
   fun:_ZN5dyld44APIs25runAllInitializersForMainEv
   fun:_ZN5dyld4L7prepareERNS_4APIsEPKN5dyld313MachOAnalyzerE
   fun:(below main)
}
{
   <insert_a_suppression_name_here>
   Memcheck:Leak
   match-leak-kinds: reachable
   fun:malloc_zone_malloc
   fun:NXCreateMapTableFromZone
   fun:map_images_nolock
   fun:map_images
   fun:___ZN5dyld412RuntimeState16setObjCNotifiersEPFvjPKPKcPKPK11mach_headerEPFvS2_S7_ESD__block_invoke
   fun:_ZN5dyld412RuntimeState19withLoadersReadLockEU13block_pointerFvvE
   fun:_ZN5dyld412RuntimeState16setObjCNotifiersEPFvjPKPKcPKPK11mach_headerEPFvS2_S7_ESD_
   fun:_ZN5dyld44APIs26_dyld_objc_notify_registerEPFvjPKPKcPKPK11mach_headerEPFvS2_S7_ESD_
   fun:_objc_init
   fun:_os_object_init
   fun:libdispatch_init
   fun:libSystem_initializer
   fun:___ZNK5dyld46Loader25findAndRunAllInitializersERNS_12RuntimeStateE_block_invoke
   fun:___ZNK5dyld313MachOAnalyzer18forEachInitializerER11DiagnosticsRKNS0_15VMAddrConverterEU13block_pointerFvjEPKv_block_invoke.261
   fun:___ZNK5dyld39MachOFile14forEachSectionEU13block_pointerFvRKNS0_11SectionInfoEbRbE_block_invoke
   fun:_ZNK5dyld39MachOFile18forEachLoadCommandER11DiagnosticsU13block_pointerFvPK12load_commandRbE
   fun:_ZNK5dyld39MachOFile14forEachSectionEU13block_pointerFvRKNS0_11SectionInfoEbRbE
   fun:_ZNK5dyld313MachOAnalyzer18forEachInitializerER11DiagnosticsRKNS0_15VMAddrConverterEU13block_pointerFvjEPKv
   fun:_ZNK5dyld46Loader25findAndRunAllInitializersERNS_12RuntimeStateE
   fun:_ZNK5dyld414PrebuiltLoader15runInitializersERNS_12RuntimeStateE
   fun:_ZN5dyld44APIs25runAllInitializersForMainEv
   fun:_ZN5dyld4L7prepareERNS_4APIsEPKN5dyld313MachOAnalyzerE
   fun:(below main)
}
{
   <insert_a_suppression_name_here>
   Memcheck:Leak
   match-leak-kinds: reachable
   fun:malloc_zone_malloc
   fun:NXCreateMapTableFromZone
   fun:_ZL9protocolsv
   fun:map_images_nolock
   fun:map_images
   fun:___ZN5dyld412RuntimeState16setObjCNotifiersEPFvjPKPKcPKPK11mach_headerEPFvS2_S7_ESD__block_invoke
   fun:_ZN5dyld412RuntimeState19withLoadersReadLockEU13block_pointerFvvE
   fun:_ZN5dyld412RuntimeState16setObjCNotifiersEPFvjPKPKcPKPK11mach_headerEPFvS2_S7_ESD_
   fun:_ZN5dyld44APIs26_dyld_objc_notify_registerEPFvjPKPKcPKPK11mach_headerEPFvS2_S7_ESD_
   fun:_objc_init
   fun:_os_object_init
   fun:libdispatch_init
   fun:libSystem_initializer
   fun:___ZNK5dyld46Loader25findAndRunAllInitializersERNS_12RuntimeStateE_block_invoke
   fun:___ZNK5dyld313MachOAnalyzer18forEachInitializerER11DiagnosticsRKNS0_15VMAddrConverterEU13block_pointerFvjEPKv_block_invoke.261
   fun:___ZNK5dyld39MachOFile14forEachSectionEU13block_pointerFvRKNS0_11SectionInfoEbRbE_block_invoke
   fun:_ZNK5dyld39MachOFile18forEachLoadCommandER11DiagnosticsU13block_pointerFvPK12load_commandRbE
   fun:_ZNK5dyld39MachOFile14forEachSectionEU13block_pointerFvRKNS0_11SectionInfoEbRbE
   fun:_ZNK5dyld313MachOAnalyzer18forEachInitializerER11DiagnosticsRKNS0_15VMAddrConverterEU13block_pointerFvjEPKv
   fun:_ZNK5dyld46Loader25findAndRunAllInitializersERNS_12RuntimeStateE
   fun:_ZNK5dyld414PrebuiltLoader15runInitializersERNS_12RuntimeStateE
   fun:_ZN5dyld44APIs25runAllInitializersForMainEv
   fun:_ZN5dyld4L7prepareERNS_4APIsEPKN5dyld313MachOAnalyzerE
   fun:(below main)
}
{
   <insert_a_suppression_name_here>
   Memcheck:Leak
   match-leak-kinds: reachable
   fun:malloc_zone_malloc
   fun:NXCreateHashTableFromZone
   fun:NXCreateMapTableFromZone
   fun:map_images_nolock
   fun:map_images
   fun:___ZN5dyld412RuntimeState16setObjCNotifiersEPFvjPKPKcPKPK11mach_headerEPFvS2_S7_ESD__block_invoke
   fun:_ZN5dyld412RuntimeState19withLoadersReadLockEU13block_pointerFvvE
   fun:_ZN5dyld412RuntimeState16setObjCNotifiersEPFvjPKPKcPKPK11mach_headerEPFvS2_S7_ESD_
   fun:_ZN5dyld44APIs26_dyld_objc_notify_registerEPFvjPKPKcPKPK11mach_headerEPFvS2_S7_ESD_
   fun:_objc_init
   fun:_os_object_init
   fun:libdispatch_init
   fun:libSystem_initializer
   fun:___ZNK5dyld46Loader25findAndRunAllInitializersERNS_12RuntimeStateE_block_invoke
   fun:___ZNK5dyld313MachOAnalyzer18forEachInitializerER11DiagnosticsRKNS0_15VMAddrConverterEU13block_pointerFvjEPKv_block_invoke.261
   fun:___ZNK5dyld39MachOFile14forEachSectionEU13block_pointerFvRKNS0_11SectionInfoEbRbE_block_invoke
   fun:_ZNK5dyld39MachOFile18forEachLoadCommandER11DiagnosticsU13block_pointerFvPK12load_commandRbE
   fun:_ZNK5dyld39MachOFile14forEachSectionEU13block_pointerFvRKNS0_11SectionInfoEbRbE
   fun:_ZNK5dyld313MachOAnalyzer18forEachInitializerER11DiagnosticsRKNS0_15VMAddrConverterEU13block_pointerFvjEPKv
   fun:_ZNK5dyld46Loader25findAndRunAllInitializersERNS_12RuntimeStateE
   fun:_ZNK5dyld414PrebuiltLoader15runInitializersERNS_12RuntimeStateE
   fun:_ZN5dyld44APIs25runAllInitializersForMainEv
   fun:_ZN5dyld4L7prepareERNS_4APIsEPKN5dyld313MachOAnalyzerE
   fun:(below main)
}
{
   <insert_a_suppression_name_here>
   Memcheck:Leak
   match-leak-kinds: reachable
   fun:malloc_zone_malloc
   fun:NXCreateHashTableFromZone
   fun:NXCreateMapTableFromZone
   fun:map_images_nolock
   fun:map_images
   fun:___ZN5dyld412RuntimeState16setObjCNotifiersEPFvjPKPKcPKPK11mach_headerEPFvS2_S7_ESD__block_invoke
   fun:_ZN5dyld412RuntimeState19withLoadersReadLockEU13block_pointerFvvE
   fun:_ZN5dyld412RuntimeState16setObjCNotifiersEPFvjPKPKcPKPK11mach_headerEPFvS2_S7_ESD_
   fun:_ZN5dyld44APIs26_dyld_objc_notify_registerEPFvjPKPKcPKPK11mach_headerEPFvS2_S7_ESD_
   fun:_objc_init
   fun:_os_object_init
   fun:libdispatch_init
   fun:libSystem_initializer
   fun:___ZNK5dyld46Loader25findAndRunAllInitializersERNS_12RuntimeStateE_block_invoke
   fun:___ZNK5dyld313MachOAnalyzer18forEachInitializerER11DiagnosticsRKNS0_15VMAddrConverterEU13block_pointerFvjEPKv_block_invoke.261
   fun:___ZNK5dyld39MachOFile14forEachSectionEU13block_pointerFvRKNS0_11SectionInfoEbRbE_block_invoke
   fun:_ZNK5dyld39MachOFile18forEachLoadCommandER11DiagnosticsU13block_pointerFvPK12load_commandRbE
   fun:_ZNK5dyld39MachOFile14forEachSectionEU13block_pointerFvRKNS0_11SectionInfoEbRbE
   fun:_ZNK5dyld313MachOAnalyzer18forEachInitializerER11DiagnosticsRKNS0_15VMAddrConverterEU13block_pointerFvjEPKv
   fun:_ZNK5dyld46Loader25findAndRunAllInitializersERNS_12RuntimeStateE
   fun:_ZNK5dyld414PrebuiltLoader15runInitializersERNS_12RuntimeStateE
   fun:_ZN5dyld44APIs25runAllInitializersForMainEv
   fun:_ZN5dyld4L7prepareERNS_4APIsEPKN5dyld313MachOAnalyzerE
   fun:(below main)
}
{
   <insert_a_suppression_name_here>
   Memcheck:Leak
   match-leak-kinds: reachable
   fun:malloc
   fun:NXCreateHashTableFromZone
   fun:NXCreateMapTableFromZone
   fun:map_images_nolock
   fun:map_images
   fun:___ZN5dyld412RuntimeState16setObjCNotifiersEPFvjPKPKcPKPK11mach_headerEPFvS2_S7_ESD__block_invoke
   fun:_ZN5dyld412RuntimeState19withLoadersReadLockEU13block_pointerFvvE
   fun:_ZN5dyld412RuntimeState16setObjCNotifiersEPFvjPKPKcPKPK11mach_headerEPFvS2_S7_ESD_
   fun:_ZN5dyld44APIs26_dyld_objc_notify_registerEPFvjPKPKcPKPK11mach_headerEPFvS2_S7_ESD_
   fun:_objc_init
   fun:_os_object_init
   fun:libdispatch_init
   fun:libSystem_initializer
   fun:___ZNK5dyld46Loader25findAndRunAllInitializersERNS_12RuntimeStateE_block_invoke
   fun:___ZNK5dyld313MachOAnalyzer18forEachInitializerER11DiagnosticsRKNS0_15VMAddrConverterEU13block_pointerFvjEPKv_block_invoke.261
   fun:___ZNK5dyld39MachOFile14forEachSectionEU13block_pointerFvRKNS0_11SectionInfoEbRbE_block_invoke
   fun:_ZNK5dyld39MachOFile18forEachLoadCommandER11DiagnosticsU13block_pointerFvPK12load_commandRbE
   fun:_ZNK5dyld39MachOFile14forEachSectionEU13block_pointerFvRKNS0_11SectionInfoEbRbE
   fun:_ZNK5dyld313MachOAnalyzer18forEachInitializerER11DiagnosticsRKNS0_15VMAddrConverterEU13block_pointerFvjEPKv
   fun:_ZNK5dyld46Loader25findAndRunAllInitializersERNS_12RuntimeStateE
   fun:_ZNK5dyld414PrebuiltLoader15runInitializersERNS_12RuntimeStateE
   fun:_ZN5dyld44APIs25runAllInitializersForMainEv
   fun:_ZN5dyld4L7prepareERNS_4APIsEPKN5dyld313MachOAnalyzerE
   fun:(below main)
}
{
   <insert_a_suppression_name_here>
   Memcheck:Leak
   match-leak-kinds: reachable
   fun:malloc
   fun:NXCreateMapTableFromZone
   fun:map_images_nolock
   fun:map_images
   fun:___ZN5dyld412RuntimeState16setObjCNotifiersEPFvjPKPKcPKPK11mach_headerEPFvS2_S7_ESD__block_invoke
   fun:_ZN5dyld412RuntimeState19withLoadersReadLockEU13block_pointerFvvE
   fun:_ZN5dyld412RuntimeState16setObjCNotifiersEPFvjPKPKcPKPK11mach_headerEPFvS2_S7_ESD_
   fun:_ZN5dyld44APIs26_dyld_objc_notify_registerEPFvjPKPKcPKPK11mach_headerEPFvS2_S7_ESD_
   fun:_objc_init
   fun:_os_object_init
   fun:libdispatch_init
   fun:libSystem_initializer
   fun:___ZNK5dyld46Loader25findAndRunAllInitializersERNS_12RuntimeStateE_block_invoke
   fun:___ZNK5dyld313MachOAnalyzer18forEachInitializerER11DiagnosticsRKNS0_15VMAddrConverterEU13block_pointerFvjEPKv_block_invoke.261
   fun:___ZNK5dyld39MachOFile14forEachSectionEU13block_pointerFvRKNS0_11SectionInfoEbRbE_block_invoke
   fun:_ZNK5dyld39MachOFile18forEachLoadCommandER11DiagnosticsU13block_pointerFvPK12load_commandRbE
   fun:_ZNK5dyld39MachOFile14forEachSectionEU13block_pointerFvRKNS0_11SectionInfoEbRbE
   fun:_ZNK5dyld313MachOAnalyzer18forEachInitializerER11DiagnosticsRKNS0_15VMAddrConverterEU13block_pointerFvjEPKv
   fun:_ZNK5dyld46Loader25findAndRunAllInitializersERNS_12RuntimeStateE
   fun:_ZNK5dyld414PrebuiltLoader15runInitializersERNS_12RuntimeStateE
   fun:_ZN5dyld44APIs25runAllInitializersForMainEv
   fun:_ZN5dyld4L7prepareERNS_4APIsEPKN5dyld313MachOAnalyzerE
   fun:(below main)
}
{
   <insert_a_suppression_name_here>
   Memcheck:Leak
   match-leak-kinds: definite
   fun:calloc
   fun:_ZL24realizeClassWithoutSwiftP10objc_classS0_
   fun:_ZL24realizeClassWithoutSwiftP10objc_classS0_
   fun:_ZL24realizeClassWithoutSwiftP10objc_classS0_
   fun:map_images_nolock
   fun:map_images
   fun:___ZN5dyld412RuntimeState16setObjCNotifiersEPFvjPKPKcPKPK11mach_headerEPFvS2_S7_ESD__block_invoke
   fun:_ZN5dyld412RuntimeState19withLoadersReadLockEU13block_pointerFvvE
   fun:_ZN5dyld412RuntimeState16setObjCNotifiersEPFvjPKPKcPKPK11mach_headerEPFvS2_S7_ESD_
   fun:_ZN5dyld44APIs26_dyld_objc_notify_registerEPFvjPKPKcPKPK11mach_headerEPFvS2_S7_ESD_
   fun:_objc_init
   fun:_os_object_init
   fun:libdispatch_init
   fun:libSystem_initializer
   fun:___ZNK5dyld46Loader25findAndRunAllInitializersERNS_12RuntimeStateE_block_invoke
   fun:___ZNK5dyld313MachOAnalyzer18forEachInitializerER11DiagnosticsRKNS0_15VMAddrConverterEU13block_pointerFvjEPKv_block_invoke.261
   fun:___ZNK5dyld39MachOFile14forEachSectionEU13block_pointerFvRKNS0_11SectionInfoEbRbE_block_invoke
   fun:_ZNK5dyld39MachOFile18forEachLoadCommandER11DiagnosticsU13block_pointerFvPK12load_commandRbE
   fun:_ZNK5dyld39MachOFile14forEachSectionEU13block_pointerFvRKNS0_11SectionInfoEbRbE
   fun:_ZNK5dyld313MachOAnalyzer18forEachInitializerER11DiagnosticsRKNS0_15VMAddrConverterEU13block_pointerFvjEPKv
   fun:_ZNK5dyld46Loader25findAndRunAllInitializersERNS_12RuntimeStateE
   fun:_ZNK5dyld414PrebuiltLoader15runInitializersERNS_12RuntimeStateE
   fun:_ZN5dyld44APIs25runAllInitializersForMainEv
   fun:_ZN5dyld4L7prepareERNS_4APIsEPKN5dyld313MachOAnalyzerE
   fun:(below main)
}
{
   <insert_a_suppression_name_here>
   Memcheck:Leak
   match-leak-kinds: definite
   fun:calloc
   fun:_ZL24realizeClassWithoutSwiftP10objc_classS0_
   fun:_ZL24realizeClassWithoutSwiftP10objc_classS0_
   fun:_ZL24realizeClassWithoutSwiftP10objc_classS0_
   fun:_ZL24realizeClassWithoutSwiftP10objc_classS0_
   fun:map_images_nolock
   fun:map_images
   fun:___ZN5dyld412RuntimeState16setObjCNotifiersEPFvjPKPKcPKPK11mach_headerEPFvS2_S7_ESD__block_invoke
   fun:_ZN5dyld412RuntimeState19withLoadersReadLockEU13block_pointerFvvE
   fun:_ZN5dyld412RuntimeState16setObjCNotifiersEPFvjPKPKcPKPK11mach_headerEPFvS2_S7_ESD_
   fun:_ZN5dyld44APIs26_dyld_objc_notify_registerEPFvjPKPKcPKPK11mach_headerEPFvS2_S7_ESD_
   fun:_objc_init
   fun:_os_object_init
   fun:libdispatch_init
   fun:libSystem_initializer
   fun:___ZNK5dyld46Loader25findAndRunAllInitializersERNS_12RuntimeStateE_block_invoke
   fun:___ZNK5dyld313MachOAnalyzer18forEachInitializerER11DiagnosticsRKNS0_15VMAddrConverterEU13block_pointerFvjEPKv_block_invoke.261
   fun:___ZNK5dyld39MachOFile14forEachSectionEU13block_pointerFvRKNS0_11SectionInfoEbRbE_block_invoke
   fun:_ZNK5dyld39MachOFile18forEachLoadCommandER11DiagnosticsU13block_pointerFvPK12load_commandRbE
   fun:_ZNK5dyld39MachOFile14forEachSectionEU13block_pointerFvRKNS0_11SectionInfoEbRbE
   fun:_ZNK5dyld313MachOAnalyzer18forEachInitializerER11DiagnosticsRKNS0_15VMAddrConverterEU13block_pointerFvjEPKv
   fun:_ZNK5dyld46Loader25findAndRunAllInitializersERNS_12RuntimeStateE
   fun:_ZNK5dyld414PrebuiltLoader15runInitializersERNS_12RuntimeStateE
   fun:_ZN5dyld44APIs25runAllInitializersForMainEv
   fun:_ZN5dyld4L7prepareERNS_4APIsEPKN5dyld313MachOAnalyzerE
   fun:(below main)
}
{
   <insert_a_suppression_name_here>
   Memcheck:Leak
   match-leak-kinds: reachable
   fun:malloc_zone_calloc
   fun:_NXHashRehashToCapacity
   fun:NXHashInsert
   fun:NXCreateHashTableFromZone
   fun:NXCreateMapTableFromZone
   fun:map_images_nolock
   fun:map_images
   fun:___ZN5dyld412RuntimeState16setObjCNotifiersEPFvjPKPKcPKPK11mach_headerEPFvS2_S7_ESD__block_invoke
   fun:_ZN5dyld412RuntimeState19withLoadersReadLockEU13block_pointerFvvE
   fun:_ZN5dyld412RuntimeState16setObjCNotifiersEPFvjPKPKcPKPK11mach_headerEPFvS2_S7_ESD_
   fun:_ZN5dyld44APIs26_dyld_objc_notify_registerEPFvjPKPKcPKPK11mach_headerEPFvS2_S7_ESD_
   fun:_objc_init
   fun:_os_object_init
   fun:libdispatch_init
   fun:libSystem_initializer
   fun:___ZNK5dyld46Loader25findAndRunAllInitializersERNS_12RuntimeStateE_block_invoke
   fun:___ZNK5dyld313MachOAnalyzer18forEachInitializerER11DiagnosticsRKNS0_15VMAddrConverterEU13block_pointerFvjEPKv_block_invoke.261
   fun:___ZNK5dyld39MachOFile14forEachSectionEU13block_pointerFvRKNS0_11SectionInfoEbRbE_block_invoke
   fun:_ZNK5dyld39MachOFile18forEachLoadCommandER11DiagnosticsU13block_pointerFvPK12load_commandRbE
   fun:_ZNK5dyld39MachOFile14forEachSectionEU13block_pointerFvRKNS0_11SectionInfoEbRbE
   fun:_ZNK5dyld313MachOAnalyzer18forEachInitializerER11DiagnosticsRKNS0_15VMAddrConverterEU13block_pointerFvjEPKv
   fun:_ZNK5dyld46Loader25findAndRunAllInitializersERNS_12RuntimeStateE
   fun:_ZNK5dyld414PrebuiltLoader15runInitializersERNS_12RuntimeStateE
   fun:_ZN5dyld44APIs25runAllInitializersForMainEv
   fun:_ZN5dyld4L7prepareERNS_4APIsEPKN5dyld313MachOAnalyzerE
   fun:(below main)
}
{
   <insert_a_suppression_name_here>
   Memcheck:Leak
   match-leak-kinds: reachable
   fun:calloc
   fun:class_createInstance
   fun:_os_object_alloc_realized
   fun:_xpc_array_create
   fun:xpc_array_create
   fun:_libxpc_initializer
   fun:libSystem_initializer
   fun:___ZNK5dyld46Loader25findAndRunAllInitializersERNS_12RuntimeStateE_block_invoke
   fun:___ZNK5dyld313MachOAnalyzer18forEachInitializerER11DiagnosticsRKNS0_15VMAddrConverterEU13block_pointerFvjEPKv_block_invoke.261
   fun:___ZNK5dyld39MachOFile14forEachSectionEU13block_pointerFvRKNS0_11SectionInfoEbRbE_block_invoke
   fun:_ZNK5dyld39MachOFile18forEachLoadCommandER11DiagnosticsU13block_pointerFvPK12load_commandRbE
   fun:_ZNK5dyld39MachOFile14forEachSectionEU13block_pointerFvRKNS0_11SectionInfoEbRbE
   fun:_ZNK5dyld313MachOAnalyzer18forEachInitializerER11DiagnosticsRKNS0_15VMAddrConverterEU13block_pointerFvjEPKv
   fun:_ZNK5dyld46Loader25findAndRunAllInitializersERNS_12RuntimeStateE
   fun:_ZNK5dyld414PrebuiltLoader15runInitializersERNS_12RuntimeStateE
   fun:_ZN5dyld44APIs25runAllInitializersForMainEv
   fun:_ZN5dyld4L7prepareERNS_4APIsEPKN5dyld313MachOAnalyzerE
   fun:(below main)
}
{
   <insert_a_suppression_name_here>
   Memcheck:Leak
   match-leak-kinds: possible
   fun:malloc_zone_malloc
   fun:NXCreateMapTableFromZone
   fun:map_images_nolock
   fun:map_images
   fun:___ZN5dyld412RuntimeState16setObjCNotifiersEPFvjPKPKcPKPK11mach_headerEPFvS2_S7_ESD__block_invoke
   fun:_ZN5dyld412RuntimeState19withLoadersReadLockEU13block_pointerFvvE
   fun:_ZN5dyld412RuntimeState16setObjCNotifiersEPFvjPKPKcPKPK11mach_headerEPFvS2_S7_ESD_
   fun:_ZN5dyld44APIs26_dyld_objc_notify_registerEPFvjPKPKcPKPK11mach_headerEPFvS2_S7_ESD_
   fun:_objc_init
   fun:_os_object_init
   fun:libdispatch_init
   fun:libSystem_initializer
   fun:___ZNK5dyld46Loader25findAndRunAllInitializersERNS_12RuntimeStateE_block_invoke
   fun:___ZNK5dyld313MachOAnalyzer18forEachInitializerER11DiagnosticsRKNS0_15VMAddrConverterEU13block_pointerFvjEPKv_block_invoke.261
   fun:___ZNK5dyld39MachOFile14forEachSectionEU13block_pointerFvRKNS0_11SectionInfoEbRbE_block_invoke
   fun:_ZNK5dyld39MachOFile18forEachLoadCommandER11DiagnosticsU13block_pointerFvPK12load_commandRbE
   fun:_ZNK5dyld39MachOFile14forEachSectionEU13block_pointerFvRKNS0_11SectionInfoEbRbE
   fun:_ZNK5dyld313MachOAnalyzer18forEachInitializerER11DiagnosticsRKNS0_15VMAddrConverterEU13block_pointerFvjEPKv
   fun:_ZNK5dyld46Loader25findAndRunAllInitializersERNS_12RuntimeStateE
   fun:_ZNK5dyld414PrebuiltLoader15runInitializersERNS_12RuntimeStateE
   fun:_ZN5dyld44APIs25runAllInitializersForMainEv
   fun:_ZN5dyld4L7prepareERNS_4APIsEPKN5dyld313MachOAnalyzerE
   fun:(below main)
}
{
   <insert_a_suppression_name_here>
   Memcheck:Leak
   match-leak-kinds: reachable
   fun:realloc
   fun:_ZN4objc10SafeRanges3addEmm
   fun:map_images_nolock
   fun:map_images
   fun:___ZN5dyld412RuntimeState16setObjCNotifiersEPFvjPKPKcPKPK11mach_headerEPFvS2_S7_ESD__block_invoke
   fun:_ZN5dyld412RuntimeState19withLoadersReadLockEU13block_pointerFvvE
   fun:_ZN5dyld412RuntimeState16setObjCNotifiersEPFvjPKPKcPKPK11mach_headerEPFvS2_S7_ESD_
   fun:_ZN5dyld44APIs26_dyld_objc_notify_registerEPFvjPKPKcPKPK11mach_headerEPFvS2_S7_ESD_
   fun:_objc_init
   fun:_os_object_init
   fun:libdispatch_init
   fun:libSystem_initializer
   fun:___ZNK5dyld46Loader25findAndRunAllInitializersERNS_12RuntimeStateE_block_invoke
   fun:___ZNK5dyld313MachOAnalyzer18forEachInitializerER11DiagnosticsRKNS0_15VMAddrConverterEU13block_pointerFvjEPKv_block_invoke.261
   fun:___ZNK5dyld39MachOFile14forEachSectionEU13block_pointerFvRKNS0_11SectionInfoEbRbE_block_invoke
   fun:_ZNK5dyld39MachOFile18forEachLoadCommandER11DiagnosticsU13block_pointerFvPK12load_commandRbE
   fun:_ZNK5dyld39MachOFile14forEachSectionEU13block_pointerFvRKNS0_11SectionInfoEbRbE
   fun:_ZNK5dyld313MachOAnalyzer18forEachInitializerER11DiagnosticsRKNS0_15VMAddrConverterEU13block_pointerFvjEPKv
   fun:_ZNK5dyld46Loader25findAndRunAllInitializersERNS_12RuntimeStateE
   fun:_ZNK5dyld414PrebuiltLoader15runInitializersERNS_12RuntimeStateE
   fun:_ZN5dyld44APIs25runAllInitializersForMainEv
   fun:_ZN5dyld4L7prepareERNS_4APIsEPKN5dyld313MachOAnalyzerE
   fun:(below main)
}
{
   <insert_a_suppression_name_here>
   Memcheck:Leak
   match-leak-kinds: reachable
   fun:calloc
   fun:_xpc_alloc
   fun:_xpc_array_create
   fun:xpc_array_create
   fun:_libxpc_initializer
   fun:libSystem_initializer
   fun:___ZNK5dyld46Loader25findAndRunAllInitializersERNS_12RuntimeStateE_block_invoke
   fun:___ZNK5dyld313MachOAnalyzer18forEachInitializerER11DiagnosticsRKNS0_15VMAddrConverterEU13block_pointerFvjEPKv_block_invoke.261
   fun:___ZNK5dyld39MachOFile14forEachSectionEU13block_pointerFvRKNS0_11SectionInfoEbRbE_block_invoke
   fun:_ZNK5dyld39MachOFile18forEachLoadCommandER11DiagnosticsU13block_pointerFvPK12load_commandRbE
   fun:_ZNK5dyld39MachOFile14forEachSectionEU13block_pointerFvRKNS0_11SectionInfoEbRbE
   fun:_ZNK5dyld313MachOAnalyzer18forEachInitializerER11DiagnosticsRKNS0_15VMAddrConverterEU13block_pointerFvjEPKv
   fun:_ZNK5dyld46Loader25findAndRunAllInitializersERNS_12RuntimeStateE
   fun:_ZNK5dyld414PrebuiltLoader15runInitializersERNS_12RuntimeStateE
   fun:_ZN5dyld44APIs25runAllInitializersForMainEv
   fun:_ZN5dyld4L7prepareERNS_4APIsEPKN5dyld313MachOAnalyzerE
   fun:(below main)
}
{
   <insert_a_suppression_name_here>
   Memcheck:Leak
   match-leak-kinds: reachable
   fun:calloc
   fun:class_createInstance
   fun:_os_object_alloc_realized
   fun:_xpc_pipe_create
   fun:_xpc_create_bootstrap_pipe
   fun:_libxpc_initializer
   fun:libSystem_initializer
   fun:___ZNK5dyld46Loader25findAndRunAllInitializersERNS_12RuntimeStateE_block_invoke
   fun:___ZNK5dyld313MachOAnalyzer18forEachInitializerER11DiagnosticsRKNS0_15VMAddrConverterEU13block_pointerFvjEPKv_block_invoke.261
   fun:___ZNK5dyld39MachOFile14forEachSectionEU13block_pointerFvRKNS0_11SectionInfoEbRbE_block_invoke
   fun:_ZNK5dyld39MachOFile18forEachLoadCommandER11DiagnosticsU13block_pointerFvPK12load_commandRbE
   fun:_ZNK5dyld39MachOFile14forEachSectionEU13block_pointerFvRKNS0_11SectionInfoEbRbE
   fun:_ZNK5dyld313MachOAnalyzer18forEachInitializerER11DiagnosticsRKNS0_15VMAddrConverterEU13block_pointerFvjEPKv
   fun:_ZNK5dyld46Loader25findAndRunAllInitializersERNS_12RuntimeStateE
   fun:_ZNK5dyld414PrebuiltLoader15runInitializersERNS_12RuntimeStateE
   fun:_ZN5dyld44APIs25runAllInitializersForMainEv
   fun:_ZN5dyld4L7prepareERNS_4APIsEPKN5dyld313MachOAnalyzerE
   fun:(below main)
}
{
   <insert_a_suppression_name_here>
   Memcheck:Leak
   match-leak-kinds: reachable
   fun:calloc
   fun:class_createInstance
   fun:_os_object_alloc_realized
   fun:xpc_dictionary_create
   fun:_xpc_collect_environment
   fun:_libxpc_initializer
   fun:libSystem_initializer
   fun:___ZNK5dyld46Loader25findAndRunAllInitializersERNS_12RuntimeStateE_block_invoke
   fun:___ZNK5dyld313MachOAnalyzer18forEachInitializerER11DiagnosticsRKNS0_15VMAddrConverterEU13block_pointerFvjEPKv_block_invoke.261
   fun:___ZNK5dyld39MachOFile14forEachSectionEU13block_pointerFvRKNS0_11SectionInfoEbRbE_block_invoke
   fun:_ZNK5dyld39MachOFile18forEachLoadCommandER11DiagnosticsU13block_pointerFvPK12load_commandRbE
   fun:_ZNK5dyld39MachOFile14forEachSectionEU13block_pointerFvRKNS0_11SectionInfoEbRbE
   fun:_ZNK5dyld313MachOAnalyzer18forEachInitializerER11DiagnosticsRKNS0_15VMAddrConverterEU13block_pointerFvjEPKv
   fun:_ZNK5dyld46Loader25findAndRunAllInitializersERNS_12RuntimeStateE
   fun:_ZNK5dyld414PrebuiltLoader15runInitializersERNS_12RuntimeStateE
   fun:_ZN5dyld44APIs25runAllInitializersForMainEv
   fun:_ZN5dyld4L7prepareERNS_4APIsEPKN5dyld313MachOAnalyzerE
   fun:(below main)
}
{
   <insert_a_suppression_name_here>
   Memcheck:Leak
   match-leak-kinds: reachable
   fun:calloc
   fun:class_createInstance
   fun:_os_object_alloc_realized
   fun:xpc_dictionary_create
   fun:_xpc_dyld_image_callback
   fun:___ZN5dyld44APIs35_dyld_register_for_bulk_image_loadsEPFvjPPK11mach_headerPPKcE_block_invoke
   fun:_ZN5dyld412RuntimeState19withLoadersReadLockEU13block_pointerFvvE
   fun:_ZN5dyld44APIs35_dyld_register_for_bulk_image_loadsEPFvjPPK11mach_headerPPKcE
   fun:_xpc_collect_images
   fun:_libxpc_initializer
   fun:libSystem_initializer
   fun:___ZNK5dyld46Loader25findAndRunAllInitializersERNS_12RuntimeStateE_block_invoke
   fun:___ZNK5dyld313MachOAnalyzer18forEachInitializerER11DiagnosticsRKNS0_15VMAddrConverterEU13block_pointerFvjEPKv_block_invoke.261
   fun:___ZNK5dyld39MachOFile14forEachSectionEU13block_pointerFvRKNS0_11SectionInfoEbRbE_block_invoke
   fun:_ZNK5dyld39MachOFile18forEachLoadCommandER11DiagnosticsU13block_pointerFvPK12load_commandRbE
   fun:_ZNK5dyld39MachOFile14forEachSectionEU13block_pointerFvRKNS0_11SectionInfoEbRbE
   fun:_ZNK5dyld313MachOAnalyzer18forEachInitializerER11DiagnosticsRKNS0_15VMAddrConverterEU13block_pointerFvjEPKv
   fun:_ZNK5dyld46Loader25findAndRunAllInitializersERNS_12RuntimeStateE
   fun:_ZNK5dyld414PrebuiltLoader15runInitializersERNS_12RuntimeStateE
   fun:_ZN5dyld44APIs25runAllInitializersForMainEv
   fun:_ZN5dyld4L7prepareERNS_4APIsEPKN5dyld313MachOAnalyzerE
   fun:(below main)
}
{
   <insert_a_suppression_name_here>
   Memcheck:Leak
   match-leak-kinds: reachable
   fun:calloc
   fun:class_createInstance
   fun:_os_object_alloc_realized
   fun:_dispatch_lane_create_with_target
   fun:_libtrace_init
   fun:libSystem_initializer
   fun:___ZNK5dyld46Loader25findAndRunAllInitializersERNS_12RuntimeStateE_block_invoke
   fun:___ZNK5dyld313MachOAnalyzer18forEachInitializerER11DiagnosticsRKNS0_15VMAddrConverterEU13block_pointerFvjEPKv_block_invoke.261
   fun:___ZNK5dyld39MachOFile14forEachSectionEU13block_pointerFvRKNS0_11SectionInfoEbRbE_block_invoke
   fun:_ZNK5dyld39MachOFile18forEachLoadCommandER11DiagnosticsU13block_pointerFvPK12load_commandRbE
   fun:_ZNK5dyld39MachOFile14forEachSectionEU13block_pointerFvRKNS0_11SectionInfoEbRbE
   fun:_ZNK5dyld313MachOAnalyzer18forEachInitializerER11DiagnosticsRKNS0_15VMAddrConverterEU13block_pointerFvjEPKv
   fun:_ZNK5dyld46Loader25findAndRunAllInitializersERNS_12RuntimeStateE
   fun:_ZNK5dyld414PrebuiltLoader15runInitializersERNS_12RuntimeStateE
   fun:_ZN5dyld44APIs25runAllInitializersForMainEv
   fun:_ZN5dyld4L7prepareERNS_4APIsEPKN5dyld313MachOAnalyzerE
   fun:(below main)
}
{
   <insert_a_suppression_name_here>
   Memcheck:Leak
   match-leak-kinds: definite
   fun:calloc
   fun:_ZL24realizeClassWithoutSwiftP10objc_classS0_
   fun:_ZL24realizeClassWithoutSwiftP10objc_classS0_
   fun:map_images_nolock
   fun:map_images
   fun:___ZN5dyld412RuntimeState16setObjCNotifiersEPFvjPKPKcPKPK11mach_headerEPFvS2_S7_ESD__block_invoke
   fun:_ZN5dyld412RuntimeState19withLoadersReadLockEU13block_pointerFvvE
   fun:_ZN5dyld412RuntimeState16setObjCNotifiersEPFvjPKPKcPKPK11mach_headerEPFvS2_S7_ESD_
   fun:_ZN5dyld44APIs26_dyld_objc_notify_registerEPFvjPKPKcPKPK11mach_headerEPFvS2_S7_ESD_
   fun:_objc_init
   fun:_os_object_init
   fun:libdispatch_init
   fun:libSystem_initializer
   fun:___ZNK5dyld46Loader25findAndRunAllInitializersERNS_12RuntimeStateE_block_invoke
   fun:___ZNK5dyld313MachOAnalyzer18forEachInitializerER11DiagnosticsRKNS0_15VMAddrConverterEU13block_pointerFvjEPKv_block_invoke.261
   fun:___ZNK5dyld39MachOFile14forEachSectionEU13block_pointerFvRKNS0_11SectionInfoEbRbE_block_invoke
   fun:_ZNK5dyld39MachOFile18forEachLoadCommandER11DiagnosticsU13block_pointerFvPK12load_commandRbE
   fun:_ZNK5dyld39MachOFile14forEachSectionEU13block_pointerFvRKNS0_11SectionInfoEbRbE
   fun:_ZNK5dyld313MachOAnalyzer18forEachInitializerER11DiagnosticsRKNS0_15VMAddrConverterEU13block_pointerFvjEPKv
   fun:_ZNK5dyld46Loader25findAndRunAllInitializersERNS_12RuntimeStateE
   fun:_ZNK5dyld414PrebuiltLoader15runInitializersERNS_12RuntimeStateE
   fun:_ZN5dyld44APIs25runAllInitializersForMainEv
   fun:_ZN5dyld4L7prepareERNS_4APIsEPKN5dyld313MachOAnalyzerE
   fun:(below main)
}
{
   <insert_a_suppression_name_here>
   Memcheck:Leak
   match-leak-kinds: definite
   fun:calloc
   fun:_ZL24realizeClassWithoutSwiftP10objc_classS0_
   fun:_ZL24realizeClassWithoutSwiftP10objc_classS0_
   fun:_ZL24realizeClassWithoutSwiftP10objc_classS0_
   fun:map_images_nolock
   fun:map_images
   fun:___ZN5dyld412RuntimeState16setObjCNotifiersEPFvjPKPKcPKPK11mach_headerEPFvS2_S7_ESD__block_invoke
   fun:_ZN5dyld412RuntimeState19withLoadersReadLockEU13block_pointerFvvE
   fun:_ZN5dyld412RuntimeState16setObjCNotifiersEPFvjPKPKcPKPK11mach_headerEPFvS2_S7_ESD_
   fun:_ZN5dyld44APIs26_dyld_objc_notify_registerEPFvjPKPKcPKPK11mach_headerEPFvS2_S7_ESD_
   fun:_objc_init
   fun:_os_object_init
   fun:libdispatch_init
   fun:libSystem_initializer
   fun:___ZNK5dyld46Loader25findAndRunAllInitializersERNS_12RuntimeStateE_block_invoke
   fun:___ZNK5dyld313MachOAnalyzer18forEachInitializerER11DiagnosticsRKNS0_15VMAddrConverterEU13block_pointerFvjEPKv_block_invoke.261
   fun:___ZNK5dyld39MachOFile14forEachSectionEU13block_pointerFvRKNS0_11SectionInfoEbRbE_block_invoke
   fun:_ZNK5dyld39MachOFile18forEachLoadCommandER11DiagnosticsU13block_pointerFvPK12load_commandRbE
   fun:_ZNK5dyld39MachOFile14forEachSectionEU13block_pointerFvRKNS0_11SectionInfoEbRbE
   fun:_ZNK5dyld313MachOAnalyzer18forEachInitializerER11DiagnosticsRKNS0_15VMAddrConverterEU13block_pointerFvjEPKv
   fun:_ZNK5dyld46Loader25findAndRunAllInitializersERNS_12RuntimeStateE
   fun:_ZNK5dyld414PrebuiltLoader15runInitializersERNS_12RuntimeStateE
   fun:_ZN5dyld44APIs25runAllInitializersForMainEv
   fun:_ZN5dyld4L7prepareERNS_4APIsEPKN5dyld313MachOAnalyzerE
   fun:(below main)
}
{
   <insert_a_suppression_name_here>
   Memcheck:Leak
   match-leak-kinds: reachable
   fun:calloc
   fun:_xpc_alloc
   fun:_xpc_dictionary_insert
   fun:_xpc_dyld_image_callback
   fun:___ZN5dyld44APIs35_dyld_register_for_bulk_image_loadsEPFvjPPK11mach_headerPPKcE_block_invoke
   fun:_ZN5dyld412RuntimeState19withLoadersReadLockEU13block_pointerFvvE
   fun:_ZN5dyld44APIs35_dyld_register_for_bulk_image_loadsEPFvjPPK11mach_headerPPKcE
   fun:_xpc_collect_images
   fun:_libxpc_initializer
   fun:libSystem_initializer
   fun:___ZNK5dyld46Loader25findAndRunAllInitializersERNS_12RuntimeStateE_block_invoke
   fun:___ZNK5dyld313MachOAnalyzer18forEachInitializerER11DiagnosticsRKNS0_15VMAddrConverterEU13block_pointerFvjEPKv_block_invoke.261
   fun:___ZNK5dyld39MachOFile14forEachSectionEU13block_pointerFvRKNS0_11SectionInfoEbRbE_block_invoke
   fun:_ZNK5dyld39MachOFile18forEachLoadCommandER11DiagnosticsU13block_pointerFvPK12load_commandRbE
   fun:_ZNK5dyld39MachOFile14forEachSectionEU13block_pointerFvRKNS0_11SectionInfoEbRbE
   fun:_ZNK5dyld313MachOAnalyzer18forEachInitializerER11DiagnosticsRKNS0_15VMAddrConverterEU13block_pointerFvjEPKv
   fun:_ZNK5dyld46Loader25findAndRunAllInitializersERNS_12RuntimeStateE
   fun:_ZNK5dyld414PrebuiltLoader15runInitializersERNS_12RuntimeStateE
   fun:_ZN5dyld44APIs25runAllInitializersForMainEv
   fun:_ZN5dyld4L7prepareERNS_4APIsEPKN5dyld313MachOAnalyzerE
   fun:(below main)
}
{
   <insert_a_suppression_name_here>
   Memcheck:Leak
   match-leak-kinds: reachable
   fun:calloc
   fun:class_createInstance
   fun:_os_object_alloc_realized
   fun:_xpc_string_create
   fun:xpc_dictionary_set_string
   fun:_xpc_collect_environment
   fun:_libxpc_initializer
   fun:libSystem_initializer
   fun:___ZNK5dyld46Loader25findAndRunAllInitializersERNS_12RuntimeStateE_block_invoke
   fun:___ZNK5dyld313MachOAnalyzer18forEachInitializerER11DiagnosticsRKNS0_15VMAddrConverterEU13block_pointerFvjEPKv_block_invoke.261
   fun:___ZNK5dyld39MachOFile14forEachSectionEU13block_pointerFvRKNS0_11SectionInfoEbRbE_block_invoke
   fun:_ZNK5dyld39MachOFile18forEachLoadCommandER11DiagnosticsU13block_pointerFvPK12load_commandRbE
   fun:_ZNK5dyld39MachOFile14forEachSectionEU13block_pointerFvRKNS0_11SectionInfoEbRbE
   fun:_ZNK5dyld313MachOAnalyzer18forEachInitializerER11DiagnosticsRKNS0_15VMAddrConverterEU13block_pointerFvjEPKv
   fun:_ZNK5dyld46Loader25findAndRunAllInitializersERNS_12RuntimeStateE
   fun:_ZNK5dyld414PrebuiltLoader15runInitializersERNS_12RuntimeStateE
   fun:_ZN5dyld44APIs25runAllInitializersForMainEv
   fun:_ZN5dyld4L7prepareERNS_4APIsEPKN5dyld313MachOAnalyzerE
   fun:(below main)
}
{
   <insert_a_suppression_name_here>
   Memcheck:Leak
   match-leak-kinds: reachable
   fun:calloc
   fun:_xpc_alloc
   fun:_xpc_dictionary_insert
   fun:xpc_dictionary_set_string
   fun:_xpc_collect_environment
   fun:_libxpc_initializer
   fun:libSystem_initializer
   fun:___ZNK5dyld46Loader25findAndRunAllInitializersERNS_12RuntimeStateE_block_invoke
   fun:___ZNK5dyld313MachOAnalyzer18forEachInitializerER11DiagnosticsRKNS0_15VMAddrConverterEU13block_pointerFvjEPKv_block_invoke.261
   fun:___ZNK5dyld39MachOFile14forEachSectionEU13block_pointerFvRKNS0_11SectionInfoEbRbE_block_invoke
   fun:_ZNK5dyld39MachOFile18forEachLoadCommandER11DiagnosticsU13block_pointerFvPK12load_commandRbE
   fun:_ZNK5dyld39MachOFile14forEachSectionEU13block_pointerFvRKNS0_11SectionInfoEbRbE
   fun:_ZNK5dyld313MachOAnalyzer18forEachInitializerER11DiagnosticsRKNS0_15VMAddrConverterEU13block_pointerFvjEPKv
   fun:_ZNK5dyld46Loader25findAndRunAllInitializersERNS_12RuntimeStateE
   fun:_ZNK5dyld414PrebuiltLoader15runInitializersERNS_12RuntimeStateE
   fun:_ZN5dyld44APIs25runAllInitializersForMainEv
   fun:_ZN5dyld4L7prepareERNS_4APIsEPKN5dyld313MachOAnalyzerE
   fun:(below main)
}
{
   <insert_a_suppression_name_here>
   Memcheck:Leak
   match-leak-kinds: reachable
   fun:malloc
   fun:strdup
   fun:xpc_string_create
   fun:xpc_dictionary_set_string
   fun:_xpc_collect_environment
   fun:_libxpc_initializer
   fun:libSystem_initializer
   fun:___ZNK5dyld46Loader25findAndRunAllInitializersERNS_12RuntimeStateE_block_invoke
   fun:___ZNK5dyld313MachOAnalyzer18forEachInitializerER11DiagnosticsRKNS0_15VMAddrConverterEU13block_pointerFvjEPKv_block_invoke.261
   fun:___ZNK5dyld39MachOFile14forEachSectionEU13block_pointerFvRKNS0_11SectionInfoEbRbE_block_invoke
   fun:_ZNK5dyld39MachOFile18forEachLoadCommandER11DiagnosticsU13block_pointerFvPK12load_commandRbE
   fun:_ZNK5dyld39MachOFile14forEachSectionEU13block_pointerFvRKNS0_11SectionInfoEbRbE
   fun:_ZNK5dyld313MachOAnalyzer18forEachInitializerER11DiagnosticsRKNS0_15VMAddrConverterEU13block_pointerFvjEPKv
   fun:_ZNK5dyld46Loader25findAndRunAllInitializersERNS_12RuntimeStateE
   fun:_ZNK5dyld414PrebuiltLoader15runInitializersERNS_12RuntimeStateE
   fun:_ZN5dyld44APIs25runAllInitializersForMainEv
   fun:_ZN5dyld4L7prepareERNS_4APIsEPKN5dyld313MachOAnalyzerE
   fun:(below main)
}
{
   <insert_a_suppression_name_here>
   Memcheck:Leak
   match-leak-kinds: possible
   fun:malloc_zone_malloc
   fun:NXCreateMapTableFromZone
   fun:_ZL9protocolsv
   fun:map_images_nolock
   fun:map_images
   fun:___ZN5dyld412RuntimeState16setObjCNotifiersEPFvjPKPKcPKPK11mach_headerEPFvS2_S7_ESD__block_invoke
   fun:_ZN5dyld412RuntimeState19withLoadersReadLockEU13block_pointerFvvE
   fun:_ZN5dyld412RuntimeState16setObjCNotifiersEPFvjPKPKcPKPK11mach_headerEPFvS2_S7_ESD_
   fun:_ZN5dyld44APIs26_dyld_objc_notify_registerEPFvjPKPKcPKPK11mach_headerEPFvS2_S7_ESD_
   fun:_objc_init
   fun:_os_object_init
   fun:libdispatch_init
   fun:libSystem_initializer
   fun:___ZNK5dyld46Loader25findAndRunAllInitializersERNS_12RuntimeStateE_block_invoke
   fun:___ZNK5dyld313MachOAnalyzer18forEachInitializerER11DiagnosticsRKNS0_15VMAddrConverterEU13block_pointerFvjEPKv_block_invoke.261
   fun:___ZNK5dyld39MachOFile14forEachSectionEU13block_pointerFvRKNS0_11SectionInfoEbRbE_block_invoke
   fun:_ZNK5dyld39MachOFile18forEachLoadCommandER11DiagnosticsU13block_pointerFvPK12load_commandRbE
   fun:_ZNK5dyld39MachOFile14forEachSectionEU13block_pointerFvRKNS0_11SectionInfoEbRbE
   fun:_ZNK5dyld313MachOAnalyzer18forEachInitializerER11DiagnosticsRKNS0_15VMAddrConverterEU13block_pointerFvjEPKv
   fun:_ZNK5dyld46Loader25findAndRunAllInitializersERNS_12RuntimeStateE
   fun:_ZNK5dyld414PrebuiltLoader15runInitializersERNS_12RuntimeStateE
   fun:_ZN5dyld44APIs25runAllInitializersForMainEv
   fun:_ZN5dyld4L7prepareERNS_4APIsEPKN5dyld313MachOAnalyzerE
   fun:(below main)
}
{
   <insert_a_suppression_name_here>
   Memcheck:Leak
   match-leak-kinds: reachable
   fun:malloc
   fun:_objc_init
   fun:_os_object_init
   fun:libdispatch_init
   fun:libSystem_initializer
   fun:___ZNK5dyld46Loader25findAndRunAllInitializersERNS_12RuntimeStateE_block_invoke
   fun:___ZNK5dyld313MachOAnalyzer18forEachInitializerER11DiagnosticsRKNS0_15VMAddrConverterEU13block_pointerFvjEPKv_block_invoke.261
   fun:___ZNK5dyld39MachOFile14forEachSectionEU13block_pointerFvRKNS0_11SectionInfoEbRbE_block_invoke
   fun:_ZNK5dyld39MachOFile18forEachLoadCommandER11DiagnosticsU13block_pointerFvPK12load_commandRbE
   fun:_ZNK5dyld39MachOFile14forEachSectionEU13block_pointerFvRKNS0_11SectionInfoEbRbE
   fun:_ZNK5dyld313MachOAnalyzer18forEachInitializerER11DiagnosticsRKNS0_15VMAddrConverterEU13block_pointerFvjEPKv
   fun:_ZNK5dyld46Loader25findAndRunAllInitializersERNS_12RuntimeStateE
   fun:_ZNK5dyld414PrebuiltLoader15runInitializersERNS_12RuntimeStateE
   fun:_ZN5dyld44APIs25runAllInitializersForMainEv
   fun:_ZN5dyld4L7prepareERNS_4APIsEPKN5dyld313MachOAnalyzerE
   fun:(below main)
}
{
   <insert_a_suppression_name_here>
   Memcheck:Leak
   match-leak-kinds: definite
   fun:calloc
   fun:_ZL24realizeClassWithoutSwiftP10objc_classS0_
   fun:map_images_nolock
   fun:map_images
   fun:___ZN5dyld412RuntimeState16setObjCNotifiersEPFvjPKPKcPKPK11mach_headerEPFvS2_S7_ESD__block_invoke
   fun:_ZN5dyld412RuntimeState19withLoadersReadLockEU13block_pointerFvvE
   fun:_ZN5dyld412RuntimeState16setObjCNotifiersEPFvjPKPKcPKPK11mach_headerEPFvS2_S7_ESD_
   fun:_ZN5dyld44APIs26_dyld_objc_notify_registerEPFvjPKPKcPKPK11mach_headerEPFvS2_S7_ESD_
   fun:_objc_init
   fun:_os_object_init
   fun:libdispatch_init
   fun:libSystem_initializer
   fun:___ZNK5dyld46Loader25findAndRunAllInitializersERNS_12RuntimeStateE_block_invoke
   fun:___ZNK5dyld313MachOAnalyzer18forEachInitializerER11DiagnosticsRKNS0_15VMAddrConverterEU13block_pointerFvjEPKv_block_invoke.261
   fun:___ZNK5dyld39MachOFile14forEachSectionEU13block_pointerFvRKNS0_11SectionInfoEbRbE_block_invoke
   fun:_ZNK5dyld39MachOFile18forEachLoadCommandER11DiagnosticsU13block_pointerFvPK12load_commandRbE
   fun:_ZNK5dyld39MachOFile14forEachSectionEU13block_pointerFvRKNS0_11SectionInfoEbRbE
   fun:_ZNK5dyld313MachOAnalyzer18forEachInitializerER11DiagnosticsRKNS0_15VMAddrConverterEU13block_pointerFvjEPKv
   fun:_ZNK5dyld46Loader25findAndRunAllInitializersERNS_12RuntimeStateE
   fun:_ZNK5dyld414PrebuiltLoader15runInitializersERNS_12RuntimeStateE
   fun:_ZN5dyld44APIs25runAllInitializersForMainEv
   fun:_ZN5dyld4L7prepareERNS_4APIsEPKN5dyld313MachOAnalyzerE
   fun:(below main)
}
{
   <insert_a_suppression_name_here>
   Memcheck:Leak
   match-leak-kinds: definite
   fun:calloc
   fun:_ZL24realizeClassWithoutSwiftP10objc_classS0_
   fun:_ZL24realizeClassWithoutSwiftP10objc_classS0_
   fun:map_images_nolock
   fun:map_images
   fun:___ZN5dyld412RuntimeState16setObjCNotifiersEPFvjPKPKcPKPK11mach_headerEPFvS2_S7_ESD__block_invoke
   fun:_ZN5dyld412RuntimeState19withLoadersReadLockEU13block_pointerFvvE
   fun:_ZN5dyld412RuntimeState16setObjCNotifiersEPFvjPKPKcPKPK11mach_headerEPFvS2_S7_ESD_
   fun:_ZN5dyld44APIs26_dyld_objc_notify_registerEPFvjPKPKcPKPK11mach_headerEPFvS2_S7_ESD_
   fun:_objc_init
   fun:_os_object_init
   fun:libdispatch_init
   fun:libSystem_initializer
   fun:___ZNK5dyld46Loader25findAndRunAllInitializersERNS_12RuntimeStateE_block_invoke
   fun:___ZNK5dyld313MachOAnalyzer18forEachInitializerER11DiagnosticsRKNS0_15VMAddrConverterEU13block_pointerFvjEPKv_block_invoke.261
   fun:___ZNK5dyld39MachOFile14forEachSectionEU13block_pointerFvRKNS0_11SectionInfoEbRbE_block_invoke
   fun:_ZNK5dyld39MachOFile18forEachLoadCommandER11DiagnosticsU13block_pointerFvPK12load_commandRbE
   fun:_ZNK5dyld39MachOFile14forEachSectionEU13block_pointerFvRKNS0_11SectionInfoEbRbE
   fun:_ZNK5dyld313MachOAnalyzer18forEachInitializerER11DiagnosticsRKNS0_15VMAddrConverterEU13block_pointerFvjEPKv
   fun:_ZNK5dyld46Loader25findAndRunAllInitializersERNS_12RuntimeStateE
   fun:_ZNK5dyld414PrebuiltLoader15runInitializersERNS_12RuntimeStateE
   fun:_ZN5dyld44APIs25runAllInitializersForMainEv
   fun:_ZN5dyld4L7prepareERNS_4APIsEPKN5dyld313MachOAnalyzerE
   fun:(below main)
}

